target datalayout = "e-m:e-p270:32:32-p271:32:32-p272:64:64-i64:64-i128:128-f80:128-n8:16:32:64-S128"
target triple = "x86_64-pc-linux-gnu"

; Function Attrs: nounwind uwtable
define internal i32 @t_tob64(ptr noundef %0, ptr noundef %1, i32 noundef %2) #0 {
  %4 = alloca i32, align 4
  %5 = alloca ptr, align 8
  %6 = alloca ptr, align 8
  %7 = alloca i32, align 4
  %8 = alloca ptr, align 8
  %9 = alloca i32, align 4
  %10 = alloca i32, align 4
  %11 = alloca [2 x i8], align 1
  %12 = alloca i64, align 8
  %13 = alloca i32, align 4
  store ptr %0, ptr %5, align 8, !tbaa !18
  store ptr %1, ptr %6, align 8, !tbaa !18
  store i32 %2, ptr %7, align 4, !tbaa !32
  call void @llvm.lifetime.start.p0(i64 8, ptr %8) #7
  %14 = call ptr @EVP_ENCODE_CTX_new()
  store ptr %14, ptr %8, align 8, !tbaa !73
  call void @llvm.lifetime.start.p0(i64 4, ptr %9) #7
  store i32 0, ptr %9, align 4, !tbaa !32
  call void @llvm.lifetime.start.p0(i64 4, ptr %10) #7
  store i32 0, ptr %10, align 4, !tbaa !32
  call void @llvm.lifetime.start.p0(i64 2, ptr %11) #7
  call void @llvm.memset.p0.i64(ptr align 1 %11, i8 0, i64 2, i1 false)
  call void @llvm.lifetime.start.p0(i64 8, ptr %12) #7
  store i64 0, ptr %12, align 8, !tbaa !71
  %15 = load ptr, ptr %8, align 8, !tbaa !73
  %16 = icmp eq ptr %15, null
  br i1 %16, label %17, label %18

17:                                               ; preds = %3
  store i32 0, ptr %4, align 4
  store i32 1, ptr %13, align 4
  br label %80

18:                                               ; preds = %3
  %19 = load ptr, ptr %8, align 8, !tbaa !73
  call void @EVP_EncodeInit(ptr noundef %19)
  %20 = load ptr, ptr %8, align 8, !tbaa !73
  call void @evp_encode_ctx_set_flags(ptr noundef %20, i32 noundef 3)
  %21 = load i32, ptr %7, align 4, !tbaa !32
  %22 = srem i32 %21, 3
  %23 = sub nsw i32 3, %22
  %24 = sext i32 %23 to i64
  store i64 %24, ptr %12, align 8, !tbaa !71
  %25 = load i64, ptr %12, align 8, !tbaa !71
  %26 = icmp ne i64 %25, 3
  br i1 %26, label %27, label %37

27:                                               ; preds = %18
  %28 = load ptr, ptr %8, align 8, !tbaa !73
  %29 = load ptr, ptr %5, align 8, !tbaa !18
  %30 = getelementptr inbounds [2 x i8], ptr %11, i64 0, i64 0
  %31 = load i64, ptr %12, align 8, !tbaa !71
  %32 = trunc i64 %31 to i32
  %33 = call i32 @EVP_EncodeUpdate(ptr noundef %28, ptr noundef %29, ptr noundef %9, ptr noundef %30, i32 noundef %32)
  %34 = icmp ne i32 %33, 0
  br i1 %34, label %37, label %35

35:                                               ; preds = %27
  %36 = load ptr, ptr %8, align 8, !tbaa !73
  call void @EVP_ENCODE_CTX_free(ptr noundef %36)
  store i32 0, ptr %4, align 4
  store i32 1, ptr %13, align 4
  br label %80

37:                                               ; preds = %27, %18
  %38 = load ptr, ptr %8, align 8, !tbaa !73
  %39 = load ptr, ptr %5, align 8, !tbaa !18
  %40 = load i32, ptr %9, align 4, !tbaa !32
  %41 = sext i32 %40 to i64
  %42 = getelementptr inbounds i8, ptr %39, i64 %41
  %43 = load ptr, ptr %6, align 8, !tbaa !18
  %44 = load i32, ptr %7, align 4, !tbaa !32
  %45 = call i32 @EVP_EncodeUpdate(ptr noundef %38, ptr noundef %42, ptr noundef %10, ptr noundef %43, i32 noundef %44)
  %46 = icmp ne i32 %45, 0
  br i1 %46, label %49, label %47

47:                                               ; preds = %37
  %48 = load ptr, ptr %8, align 8, !tbaa !73
  call void @EVP_ENCODE_CTX_free(ptr noundef %48)
  store i32 0, ptr %4, align 4
  store i32 1, ptr %13, align 4
  br label %80

49:                                               ; preds = %37
  %50 = load i32, ptr %10, align 4, !tbaa !32
  %51 = load i32, ptr %9, align 4, !tbaa !32
  %52 = add nsw i32 %51, %50
  store i32 %52, ptr %9, align 4, !tbaa !32
  %53 = load ptr, ptr %8, align 8, !tbaa !73
  %54 = load ptr, ptr %5, align 8, !tbaa !18
  %55 = load i32, ptr %9, align 4, !tbaa !32
  %56 = sext i32 %55 to i64
  %57 = getelementptr inbounds i8, ptr %54, i64 %56
  call void @EVP_EncodeFinal(ptr noundef %53, ptr noundef %57, ptr noundef %10)
  %58 = load i32, ptr %10, align 4, !tbaa !32
  %59 = load i32, ptr %9, align 4, !tbaa !32
  %60 = add nsw i32 %59, %58
  store i32 %60, ptr %9, align 4, !tbaa !32
  %61 = load i64, ptr %12, align 8, !tbaa !71
  %62 = icmp ne i64 %61, 3
  br i1 %62, label %63, label %78

63:                                               ; preds = %49
  %64 = load ptr, ptr %5, align 8, !tbaa !18
  %65 = load ptr, ptr %5, align 8, !tbaa !18
  %66 = load i64, ptr %12, align 8, !tbaa !71
  %67 = getelementptr inbounds nuw i8, ptr %65, i64 %66
  %68 = load i32, ptr %9, align 4, !tbaa !32
  %69 = sext i32 %68 to i64
  %70 = load i64, ptr %12, align 8, !tbaa !71
  %71 = sub i64 %69, %70
  call void @llvm.memmove.p0.p0.i64(ptr align 1 %64, ptr align 1 %67, i64 %71, i1 false)
  %72 = load ptr, ptr %5, align 8, !tbaa !18
  %73 = load i32, ptr %9, align 4, !tbaa !32
  %74 = sext i32 %73 to i64
  %75 = load i64, ptr %12, align 8, !tbaa !71
  %76 = sub i64 %74, %75
  %77 = getelementptr inbounds nuw i8, ptr %72, i64 %76
  store i8 0, ptr %77, align 1, !tbaa !51
  br label %78

78:                                               ; preds = %63, %49
  %79 = load ptr, ptr %8, align 8, !tbaa !73
  call void @EVP_ENCODE_CTX_free(ptr noundef %79)
  store i32 1, ptr %4, align 4
  store i32 1, ptr %13, align 4
  br label %80

80:                                               ; preds = %78, %47, %35, %17
  call void @llvm.lifetime.end.p0(i64 8, ptr %12) #7
  call void @llvm.lifetime.end.p0(i64 2, ptr %11) #7
  call void @llvm.lifetime.end.p0(i64 4, ptr %10) #7
  call void @llvm.lifetime.end.p0(i64 4, ptr %9) #7
  call void @llvm.lifetime.end.p0(i64 8, ptr %8) #7
  %81 = load i32, ptr %4, align 4
  ret i32 %81
}