; Function Attrs: nounwind uwtable
define internal fastcc range(i32 0, 2) i32 @t_tob64(ptr noundef nonnull %0, ptr noundef nonnull %1, i32 noundef range(i32 -268435455, 268435456) %2) unnamed_addr #0 {
  %4 = alloca i32, align 4
  %5 = alloca i32, align 4
  %6 = alloca [2 x i8], align 2
  %7 = tail call ptr @EVP_ENCODE_CTX_new() #7
  call void @llvm.lifetime.start.p0(i64 4, ptr nonnull %4) #7
  store i32 0, ptr %4, align 4, !tbaa !45
  call void @llvm.lifetime.start.p0(i64 4, ptr nonnull %5) #7
  store i32 0, ptr %5, align 4, !tbaa !45
  call void @llvm.lifetime.start.p0(i64 2, ptr nonnull %6) #7
  store i16 0, ptr %6, align 2
  %8 = icmp eq ptr %7, null
  br i1 %8, label %34, label %9

9:                                                ; preds = %3
  tail call void @EVP_EncodeInit(ptr noundef nonnull %7) #7
  tail call void @evp_encode_ctx_set_flags(ptr noundef nonnull %7, i32 noundef 3) #7
  %10 = srem i32 %2, 3
  %11 = sub nsw i32 3, %10
  %12 = zext nneg i32 %11 to i64
  %.not = icmp eq i32 %10, 0
  br i1 %.not, label %16, label %13

13:                                               ; preds = %9
  %14 = call i32 @EVP_EncodeUpdate(ptr noundef nonnull %7, ptr noundef nonnull %0, ptr noundef nonnull %4, ptr noundef nonnull %6, i32 noundef %11) #7
  %.not26 = icmp eq i32 %14, 0
  br i1 %.not26, label %.sink.split, label %._crit_edge

._crit_edge:                                      ; preds = %13
  %.pre = load i32, ptr %4, align 4, !tbaa !45
  %15 = sext i32 %.pre to i64
  br label %16

16:                                               ; preds = %._crit_edge, %9
  %17 = phi i64 [ %15, %._crit_edge ], [ 0, %9 ]
  %18 = getelementptr inbounds i8, ptr %0, i64 %17
  %19 = call i32 @EVP_EncodeUpdate(ptr noundef nonnull %7, ptr noundef nonnull %18, ptr noundef nonnull %5, ptr noundef nonnull %1, i32 noundef %2) #7
  %.not27 = icmp eq i32 %19, 0
  br i1 %.not27, label %.sink.split, label %20

20:                                               ; preds = %16
  %21 = load i32, ptr %5, align 4, !tbaa !45
  %22 = load i32, ptr %4, align 4, !tbaa !45
  %23 = add nsw i32 %22, %21
  store i32 %23, ptr %4, align 4, !tbaa !45
  %24 = sext i32 %23 to i64
  %25 = getelementptr inbounds i8, ptr %0, i64 %24
  call void @EVP_EncodeFinal(ptr noundef nonnull %7, ptr noundef nonnull %25, ptr noundef nonnull %5) #7
  %26 = load i32, ptr %5, align 4, !tbaa !45
  %27 = load i32, ptr %4, align 4, !tbaa !45
  %28 = add nsw i32 %27, %26
  store i32 %28, ptr %4, align 4, !tbaa !45
  br i1 %.not, label %.sink.split, label %29

29:                                               ; preds = %20
  %30 = getelementptr inbounds nuw i8, ptr %0, i64 %12
  %31 = sext i32 %28 to i64
  %32 = sub nsw i64 %31, %12
  call void @llvm.memmove.p0.p0.i64(ptr nonnull align 1 %0, ptr nonnull align 1 %30, i64 %32, i1 false)
  %33 = getelementptr inbounds nuw i8, ptr %0, i64 %32
  store i8 0, ptr %33, align 1, !tbaa !31
  br label %.sink.split

.sink.split:                                      ; preds = %20, %29, %16, %13
  %.0.ph = phi i32 [ 0, %13 ], [ 0, %16 ], [ 1, %29 ], [ 1, %20 ]
  call void @EVP_ENCODE_CTX_free(ptr noundef nonnull %7) #7
  br label %34

34:                                               ; preds = %.sink.split, %3
  %.0 = phi i32 [ 0, %3 ], [ %.0.ph, %.sink.split ]
  call void @llvm.lifetime.end.p0(i64 2, ptr nonnull %6) #7
  call void @llvm.lifetime.end.p0(i64 4, ptr nonnull %5) #7
  call void @llvm.lifetime.end.p0(i64 4, ptr nonnull %4) #7
  ret i32 %.0
}